target datalayout = "e-m:e-p270:32:32-p271:32:32-p272:64:64-i64:64-i128:128-f80:128-n8:16:32:64-S128"
target triple = "x86_64-pc-linux-gnu"

%struct.dfvm_value_t = type { i32, %union.anon, i32 }
%union.anon = type { ptr }
%struct._GPtrArray = type { ptr, i32 }
%struct._header_field_info = type { ptr, ptr, i32, i32, ptr, i64, ptr, i32, i32, i32, i32, ptr }
%struct.df_func_def_t = type { ptr, ptr, i32, i32, i32, ptr }

@.str.91 = private unnamed_addr constant [3 x i8] c"%u\00", align 1
@.str.92 = private unnamed_addr constant [4 x i8] c"@%s\00", align 1
@.str.93 = private unnamed_addr constant [4 x i8] c"R%u\00", align 1
@.str.94 = private unnamed_addr constant [6 x i8] c"EMPTY\00", align 1
@.str.95 = private unnamed_addr constant [9 x i8] c"INSN(%u)\00", align 1

; Function Attrs: nounwind uwtable
define internal ptr @dfvm_value_tostr(ptr noundef %0) #0 {
  %2 = alloca ptr, align 8
  %3 = alloca ptr, align 8
  %4 = alloca ptr, align 8
  store ptr %0, ptr %3, align 8
  store ptr null, ptr %4, align 8
  %5 = load ptr, ptr %3, align 8
  %6 = icmp ne ptr %5, null
  br i1 %6, label %8, label %7

7:                                                ; preds = %1
  store ptr null, ptr %2, align 8
  br label %72

8:                                                ; preds = %1
  %9 = load ptr, ptr %3, align 8
  %10 = getelementptr inbounds %struct.dfvm_value_t, ptr %9, i32 0, i32 0
  %11 = load i32, ptr %10, align 8
  switch i32 %11, label %70 [
    i32 2, label %12
    i32 3, label %19
    i32 1, label %26
    i32 7, label %35
    i32 9, label %40
    i32 5, label %46
    i32 8, label %51
    i32 6, label %58
    i32 0, label %63
    i32 4, label %65
  ]

12:                                               ; preds = %8
  %13 = load ptr, ptr %3, align 8
  %14 = getelementptr inbounds %struct.dfvm_value_t, ptr %13, i32 0, i32 1
  %15 = load ptr, ptr %14, align 8
  %16 = getelementptr inbounds %struct._header_field_info, ptr %15, i32 0, i32 1
  %17 = load ptr, ptr %16, align 8
  %18 = call noalias ptr @wmem_strdup(ptr noundef null, ptr noundef %17)
  store ptr %18, ptr %4, align 8
  br label %70

19:                                               ; preds = %8
  %20 = load ptr, ptr %3, align 8
  %21 = getelementptr inbounds %struct.dfvm_value_t, ptr %20, i32 0, i32 1
  %22 = load ptr, ptr %21, align 8
  %23 = getelementptr inbounds %struct._header_field_info, ptr %22, i32 0, i32 1
  %24 = load ptr, ptr %23, align 8
  %25 = call noalias ptr (ptr, ptr, ...) @wmem_strdup_printf(ptr noundef null, ptr noundef @.str.92, ptr noundef %24)
  store ptr %25, ptr %4, align 8
  br label %70

26:                                               ; preds = %8
  %27 = load ptr, ptr %3, align 8
  %28 = getelementptr inbounds %struct.dfvm_value_t, ptr %27, i32 0, i32 1
  %29 = load ptr, ptr %28, align 8
  %30 = getelementptr inbounds %struct._GPtrArray, ptr %29, i32 0, i32 0
  %31 = load ptr, ptr %30, align 8
  %32 = getelementptr ptr, ptr %31, i64 0
  %33 = load ptr, ptr %32, align 8
  %34 = call ptr @fvalue_to_string_repr(ptr noundef null, ptr noundef %33, i32 noundef 1, i32 noundef 0)
  store ptr %34, ptr %4, align 8
  br label %70

35:                                               ; preds = %8
  %36 = load ptr, ptr %3, align 8
  %37 = getelementptr inbounds %struct.dfvm_value_t, ptr %36, i32 0, i32 1
  %38 = load ptr, ptr %37, align 8
  %39 = call ptr @drange_tostr(ptr noundef %38)
  store ptr %39, ptr %4, align 8
  br label %70

40:                                               ; preds = %8
  %41 = load ptr, ptr %3, align 8
  %42 = getelementptr inbounds %struct.dfvm_value_t, ptr %41, i32 0, i32 1
  %43 = load ptr, ptr %42, align 8
  %44 = call ptr @ws_regex_pattern(ptr noundef %43)
  %45 = call noalias ptr @wmem_strdup(ptr noundef null, ptr noundef %44)
  store ptr %45, ptr %4, align 8
  br label %70

46:                                               ; preds = %8
  %47 = load ptr, ptr %3, align 8
  %48 = getelementptr inbounds %struct.dfvm_value_t, ptr %47, i32 0, i32 1
  %49 = load i32, ptr %48, align 8
  %50 = call noalias ptr (ptr, ptr, ...) @wmem_strdup_printf(ptr noundef null, ptr noundef @.str.93, i32 noundef %49)
  store ptr %50, ptr %4, align 8
  br label %70

51:                                               ; preds = %8
  %52 = load ptr, ptr %3, align 8
  %53 = getelementptr inbounds %struct.dfvm_value_t, ptr %52, i32 0, i32 1
  %54 = load ptr, ptr %53, align 8
  %55 = getelementptr inbounds %struct.df_func_def_t, ptr %54, i32 0, i32 0
  %56 = load ptr, ptr %55, align 8
  %57 = call noalias ptr @wmem_strdup(ptr noundef null, ptr noundef %56)
  store ptr %57, ptr %4, align 8
  br label %70

58:                                               ; preds = %8
  %59 = load ptr, ptr %3, align 8
  %60 = getelementptr inbounds %struct.dfvm_value_t, ptr %59, i32 0, i32 1
  %61 = load i32, ptr %60, align 8
  %62 = call noalias ptr (ptr, ptr, ...) @wmem_strdup_printf(ptr noundef null, ptr noundef @.str.91, i32 noundef %61)
  store ptr %62, ptr %4, align 8
  br label %70

63:                                               ; preds = %8
  %64 = call noalias ptr @wmem_strdup(ptr noundef null, ptr noundef @.str.94)
  store ptr %64, ptr %4, align 8
  br label %70

65:                                               ; preds = %8
  %66 = load ptr, ptr %3, align 8
  %67 = getelementptr inbounds %struct.dfvm_value_t, ptr %66, i32 0, i32 1
  %68 = load i32, ptr %67, align 8
  %69 = call noalias ptr (ptr, ptr, ...) @wmem_strdup_printf(ptr noundef null, ptr noundef @.str.95, i32 noundef %68)
  store ptr %69, ptr %4, align 8
  br label %70

70:                                               ; preds = %65, %63, %58, %51, %46, %40, %35, %26, %19, %12, %8
  %71 = load ptr, ptr %4, align 8
  store ptr %71, ptr %2, align 8
  br label %72

72:                                               ; preds = %70, %7
  %73 = load ptr, ptr %2, align 8
  ret ptr %73
}