; Function Attrs: nounwind uwtable
define internal fastcc ptr @dfvm_value_tostr(ptr noundef readonly %0) unnamed_addr #2 {
  %.not = icmp eq ptr %0, null
  br i1 %.not, label %50, label %2

2:                                                ; preds = %1
  %3 = load i32, ptr %0, align 8
  switch i32 %3, label %50 [
    i32 2, label %4
    i32 3, label %10
    i32 1, label %16
    i32 7, label %22
    i32 9, label %26
    i32 5, label %31
    i32 8, label %35
    i32 6, label %40
    i32 0, label %44
    i32 4, label %46
  ]

4:                                                ; preds = %2
  %5 = getelementptr inbounds nuw i8, ptr %0, i64 8
  %6 = load ptr, ptr %5, align 8
  %7 = getelementptr inbounds nuw i8, ptr %6, i64 8
  %8 = load ptr, ptr %7, align 8
  %9 = tail call noalias ptr @wmem_strdup(ptr noundef null, ptr noundef %8) #11
  br label %50

10:                                               ; preds = %2
  %11 = getelementptr inbounds nuw i8, ptr %0, i64 8
  %12 = load ptr, ptr %11, align 8
  %13 = getelementptr inbounds nuw i8, ptr %12, i64 8
  %14 = load ptr, ptr %13, align 8
  %15 = tail call noalias ptr (ptr, ptr, ...) @wmem_strdup_printf(ptr noundef null, ptr noundef nonnull @.str.92, ptr noundef %14) #11
  br label %50

16:                                               ; preds = %2
  %17 = getelementptr inbounds nuw i8, ptr %0, i64 8
  %18 = load ptr, ptr %17, align 8
  %19 = load ptr, ptr %18, align 8
  %20 = load ptr, ptr %19, align 8
  %21 = tail call ptr @fvalue_to_string_repr(ptr noundef null, ptr noundef %20, i32 noundef 1, i32 noundef 0) #11
  br label %50

22:                                               ; preds = %2
  %23 = getelementptr inbounds nuw i8, ptr %0, i64 8
  %24 = load ptr, ptr %23, align 8
  %25 = tail call ptr @drange_tostr(ptr noundef %24) #11
  br label %50

26:                                               ; preds = %2
  %27 = getelementptr inbounds nuw i8, ptr %0, i64 8
  %28 = load ptr, ptr %27, align 8
  %29 = tail call ptr @ws_regex_pattern(ptr noundef %28) #11
  %30 = tail call noalias ptr @wmem_strdup(ptr noundef null, ptr noundef %29) #11
  br label %50

31:                                               ; preds = %2
  %32 = getelementptr inbounds nuw i8, ptr %0, i64 8
  %33 = load i32, ptr %32, align 8
  %34 = tail call noalias ptr (ptr, ptr, ...) @wmem_strdup_printf(ptr noundef null, ptr noundef nonnull @.str.93, i32 noundef %33) #11
  br label %50

35:                                               ; preds = %2
  %36 = getelementptr inbounds nuw i8, ptr %0, i64 8
  %37 = load ptr, ptr %36, align 8
  %38 = load ptr, ptr %37, align 8
  %39 = tail call noalias ptr @wmem_strdup(ptr noundef null, ptr noundef %38) #11
  br label %50

40:                                               ; preds = %2
  %41 = getelementptr inbounds nuw i8, ptr %0, i64 8
  %42 = load i32, ptr %41, align 8
  %43 = tail call noalias ptr (ptr, ptr, ...) @wmem_strdup_printf(ptr noundef null, ptr noundef nonnull @.str.91, i32 noundef %42) #11
  br label %50

44:                                               ; preds = %2
  %45 = tail call noalias ptr @wmem_strdup(ptr noundef null, ptr noundef nonnull @.str.94) #11
  br label %50

46:                                               ; preds = %2
  %47 = getelementptr inbounds nuw i8, ptr %0, i64 8
  %48 = load i32, ptr %47, align 8
  %49 = tail call noalias ptr (ptr, ptr, ...) @wmem_strdup_printf(ptr noundef null, ptr noundef nonnull @.str.95, i32 noundef %48) #11
  br label %50

50:                                               ; preds = %2, %4, %10, %16, %22, %26, %31, %35, %40, %44, %46, %1
  %.013 = phi ptr [ null, %1 ], [ null, %2 ], [ %49, %46 ], [ %45, %44 ], [ %43, %40 ], [ %39, %35 ], [ %34, %31 ], [ %30, %26 ], [ %25, %22 ], [ %21, %16 ], [ %15, %10 ], [ %9, %4 ]
  ret ptr %.013
}